; Function Attrs: nounwind uwtable
define ptr @l_Lean_FuzzyMatching_fuzzyMatchScore_x3f___lambda__4(ptr noundef %0, ptr noundef %1, ptr noundef readnone captures(none) %2) local_unnamed_addr #0 {
lean_dec.exit13:
  %3 = getelementptr i8, ptr %1, i64 24
  %.val19 = load i64, ptr %3, align 8, !tbaa !13
  %4 = shl i64 %.val19, 1
  %5 = getelementptr i8, ptr %0, i64 24
  %.val = load i64, ptr %5, align 8, !tbaa !13
  %6 = shl i64 %.val, 1
  %.not = icmp ult i64 %4, %6
  br i1 %.not, label %9, label %7

7:                                                ; preds = %lean_dec.exit13
  %8 = tail call ptr @l_Lean_FuzzyMatching_fuzzyMatchScore_x3f___lambda__3(ptr noundef nonnull %0, ptr noundef nonnull %1, ptr nonnull poison)
  br label %lean_dec.exit

9:                                                ; preds = %lean_dec.exit13
  %10 = ptrtoint ptr %0 to i64
  %11 = and i64 %10, 1
  %.not20 = icmp eq i64 %11, 0
  br i1 %.not20, label %12, label %lean_dec.exit

12:                                               ; preds = %9
  %13 = load i32, ptr %0, align 4, !tbaa !5
  %14 = icmp sgt i32 %13, 1
  br i1 %14, label %15, label %17, !prof !10

15:                                               ; preds = %12
  %16 = add nsw i32 %13, -1
  store i32 %16, ptr %0, align 4, !tbaa !5
  br label %lean_dec.exit

17:                                               ; preds = %12
  %.not.i17 = icmp eq i32 %13, 0
  br i1 %.not.i17, label %lean_dec.exit, label %18

18:                                               ; preds = %17
  tail call void @lean_dec_ref_cold(ptr noundef nonnull %0) #7
  br label %lean_dec.exit

lean_dec.exit:                                    ; preds = %9, %15, %17, %18, %7
  %.0 = phi ptr [ %8, %7 ], [ inttoptr (i64 1 to ptr), %18 ], [ inttoptr (i64 1 to ptr), %17 ], [ inttoptr (i64 1 to ptr), %15 ], [ inttoptr (i64 1 to ptr), %9 ]
  ret ptr %.0
}